target datalayout = "e-m:e-p270:32:32-p271:32:32-p272:64:64-i64:64-i128:128-f80:128-n8:16:32:64-S128"
target triple = "x86_64-pc-linux-gnu"

%struct.KBBDPrecDataRec = type { i64, i64, i64, i64, ptr, ptr, double, ptr, ptr, ptr, i64, i64, i64, i64, ptr }

; Function Attrs: nounwind uwtable
define internal i32 @KINBBDPrecSolve(ptr noundef %0, ptr noundef %1, ptr noundef %2, ptr noundef %3, ptr noundef %4, ptr noundef %5, ptr noundef %6) #0 {
  %8 = alloca ptr, align 8
  %9 = alloca ptr, align 8
  %10 = alloca ptr, align 8
  %11 = alloca ptr, align 8
  %12 = alloca ptr, align 8
  %13 = alloca ptr, align 8
  %14 = alloca ptr, align 8
  %15 = alloca ptr, align 8
  %16 = alloca ptr, align 8
  store ptr %0, ptr %8, align 8, !tbaa !42
  store ptr %1, ptr %9, align 8, !tbaa !42
  store ptr %2, ptr %10, align 8, !tbaa !42
  store ptr %3, ptr %11, align 8, !tbaa !42
  store ptr %4, ptr %12, align 8, !tbaa !42
  store ptr %5, ptr %13, align 8, !tbaa !3
  store ptr %6, ptr %14, align 8, !tbaa !42
  call void @llvm.lifetime.start.p0(i64 8, ptr %15) #5
  call void @llvm.lifetime.start.p0(i64 8, ptr %16) #5
  %17 = load ptr, ptr %13, align 8, !tbaa !3
  store ptr %17, ptr %15, align 8, !tbaa !11
  %18 = load ptr, ptr %12, align 8, !tbaa !42
  %19 = call ptr @N_VGetArrayPointer(ptr noundef %18)
  store ptr %19, ptr %16, align 8, !tbaa !54
  %20 = load ptr, ptr %15, align 8, !tbaa !11
  %21 = getelementptr inbounds nuw %struct.KBBDPrecDataRec, ptr %20, i32 0, i32 8
  %22 = load ptr, ptr %21, align 8, !tbaa !40
  %23 = load ptr, ptr %15, align 8, !tbaa !11
  %24 = getelementptr inbounds nuw %struct.KBBDPrecDataRec, ptr %23, i32 0, i32 9
  %25 = load ptr, ptr %24, align 8, !tbaa !41
  %26 = load ptr, ptr %16, align 8, !tbaa !54
  call void @BandGBTRS(ptr noundef %22, ptr noundef %25, ptr noundef %26)
  call void @llvm.lifetime.end.p0(i64 8, ptr %16) #5
  call void @llvm.lifetime.end.p0(i64 8, ptr %15) #5
  ret i32 0
}