; Function Attrs: nounwind uwtable
define internal noundef i32 @KINBBDPrecSolve(ptr readnone captures(none) %0, ptr readnone captures(none) %1, ptr readnone captures(none) %2, ptr readnone captures(none) %3, ptr noundef %4, ptr noundef readonly captures(none) %5, ptr readnone captures(none) %6) #0 {
  %8 = tail call ptr @N_VGetArrayPointer(ptr noundef %4) #5
  %9 = getelementptr inbounds nuw i8, ptr %5, i64 64
  %10 = load ptr, ptr %9, align 8, !tbaa !31
  %11 = getelementptr inbounds nuw i8, ptr %5, i64 72
  %12 = load ptr, ptr %11, align 8, !tbaa !32
  tail call void @BandGBTRS(ptr noundef %10, ptr noundef %12, ptr noundef %8) #5
  ret i32 0
}